target datalayout = "e-m:e-p270:32:32-p271:32:32-p272:64:64-i64:64-i128:128-f80:128-n8:16:32:64-S128"
target triple = "x86_64-pc-linux-gnu"

%struct.rb_execution_context_struct = type { ptr, i64, ptr, ptr, i32, i32, ptr, ptr, ptr, i64, i64, i64, ptr, i64, ptr, i64, i64, i8, i8, i64, %struct.anon.7 }
%struct.anon.7 = type { ptr, ptr, i64, [1 x %struct.__jmp_buf_tag] }
%struct.__jmp_buf_tag = type { [8 x i64], i32, %struct.__sigset_t }
%struct.__sigset_t = type { [16 x i64] }
%struct.rb_control_frame_struct = type { ptr, ptr, ptr, i64, ptr, ptr, ptr }

; Function Attrs: nounwind sspstrong uwtable
define internal i64 @builtin_inline_class_828(ptr noundef %0, i64 noundef %1) #0 {
  %3 = alloca ptr, align 8
  %4 = alloca i64, align 8
  %5 = alloca ptr, align 8
  %6 = alloca i64, align 8
  store ptr %0, ptr %3, align 8, !tbaa !88
  store i64 %1, ptr %4, align 8, !tbaa !16
  call void @llvm.lifetime.start.p0(i64 8, ptr %5) #16
  %7 = load ptr, ptr %3, align 8, !tbaa !88
  %8 = getelementptr inbounds nuw %struct.rb_execution_context_struct, ptr %7, i32 0, i32 2
  %9 = load ptr, ptr %8, align 8, !tbaa !201
  %10 = getelementptr inbounds nuw %struct.rb_control_frame_struct, ptr %9, i32 0, i32 4
  %11 = load ptr, ptr %10, align 8, !tbaa !202
  %12 = getelementptr i64, ptr %11, i64 -5
  store ptr %12, ptr %5, align 8, !tbaa !112
  call void @llvm.lifetime.start.p0(i64 8, ptr %6) #16
  %13 = load ptr, ptr %5, align 8, !tbaa !112
  %14 = load i64, ptr %13, align 8, !tbaa !16
  store i64 %14, ptr %6, align 8, !tbaa !16
  %15 = load i64, ptr %6, align 8, !tbaa !16
  %16 = call i64 @rb_ractor_make_shareable_copy(i64 noundef %15)
  call void @llvm.lifetime.end.p0(i64 8, ptr %6) #16
  call void @llvm.lifetime.end.p0(i64 8, ptr %5) #16
  ret i64 %16
}