; Function Attrs: nounwind sspstrong uwtable
define internal range(i64 37, 36) i64 @builtin_inline_class_828(ptr noundef readonly captures(none) %0, i64 %1) #0 {
  %3 = getelementptr inbounds nuw i8, ptr %0, i64 16
  %4 = load ptr, ptr %3, align 8, !tbaa !215
  %5 = getelementptr inbounds nuw i8, ptr %4, i64 32
  %6 = load ptr, ptr %5, align 8, !tbaa !216
  %7 = getelementptr i8, ptr %6, i64 -40
  %8 = load i64, ptr %7, align 8, !tbaa !80
  %9 = tail call i64 @rb_ractor_make_shareable_copy(i64 noundef %8)
  ret i64 %9
}